target datalayout = "e-m:e-p270:32:32-p271:32:32-p272:64:64-i64:64-i128:128-f80:128-n8:16:32:64-S128"
target triple = "x86_64-pc-linux-gnu"

@.str.280 = private unnamed_addr constant [25 x i8] c"Invalid number part: %c\0A\00", align 1
@.str.286 = private unnamed_addr constant [42 x i8] c"Newline encountered while reading number\0A\00", align 1

; Function Attrs: nounwind uwtable
define internal i32 @readFixedNumber(ptr noundef %0, ptr noundef %1, i32 noundef %2, ptr noundef %3, i32 noundef %4) #0 {
  %6 = alloca i32, align 4
  %7 = alloca ptr, align 8
  %8 = alloca ptr, align 8
  %9 = alloca i32, align 4
  %10 = alloca ptr, align 8
  %11 = alloca i32, align 4
  %12 = alloca i32, align 4
  %13 = alloca i32, align 4
  %14 = alloca i32, align 4
  %15 = alloca i32, align 4
  %16 = alloca i32, align 4
  store ptr %0, ptr %7, align 8
  store ptr %1, ptr %8, align 8
  store i32 %2, ptr %9, align 4
  store ptr %3, ptr %10, align 8
  store i32 %4, ptr %11, align 4
  store i32 0, ptr %13, align 4
  store i32 0, ptr %14, align 4
  %17 = load ptr, ptr %8, align 8
  %18 = load i32, ptr %17, align 4
  %19 = load i32, ptr %11, align 4
  %20 = add i32 %18, %19
  store i32 %20, ptr %15, align 4
  %21 = load i32, ptr %15, align 4
  %22 = load i32, ptr %9, align 4
  %23 = icmp ugt i32 %21, %22
  br i1 %23, label %24, label %26

24:                                               ; preds = %5
  call void (ptr, ...) @cli_errmsg(ptr noundef @.str.286)
  %25 = load ptr, ptr %10, align 8
  store i8 0, ptr %25, align 1
  store i32 0, ptr %6, align 4
  br label %69

26:                                               ; preds = %5
  %27 = load ptr, ptr %8, align 8
  %28 = load i32, ptr %27, align 4
  store i32 %28, ptr %12, align 4
  br label %29

29:                                               ; preds = %62, %26
  %30 = load i32, ptr %12, align 4
  %31 = load i32, ptr %15, align 4
  %32 = icmp ult i32 %30, %31
  br i1 %32, label %33, label %65

33:                                               ; preds = %29
  %34 = load ptr, ptr %7, align 8
  %35 = load i32, ptr %12, align 4
  %36 = zext i32 %35 to i64
  %37 = getelementptr inbounds i8, ptr %34, i64 %36
  %38 = load i8, ptr %37, align 1
  %39 = zext i8 %38 to i32
  store i32 %39, ptr %16, align 4
  %40 = load i32, ptr %16, align 4
  %41 = and i32 %40, 240
  %42 = icmp ne i32 %41, 96
  %43 = xor i1 %42, true
  %44 = xor i1 %43, true
  %45 = zext i1 %44 to i32
  %46 = sext i32 %45 to i64
  %47 = icmp ne i64 %46, 0
  br i1 %47, label %48, label %51

48:                                               ; preds = %33
  %49 = load i32, ptr %16, align 4
  call void (ptr, ...) @cli_errmsg(ptr noundef @.str.280, i32 noundef %49)
  %50 = load ptr, ptr %10, align 8
  store i8 0, ptr %50, align 1
  store i32 0, ptr %6, align 4
  br label %69

51:                                               ; preds = %33
  %52 = load i32, ptr %16, align 4
  %53 = and i32 %52, 15
  store i32 %53, ptr %16, align 4
  %54 = load i32, ptr %14, align 4
  %55 = load i32, ptr %16, align 4
  %56 = shl i32 %55, %54
  store i32 %56, ptr %16, align 4
  %57 = load i32, ptr %16, align 4
  %58 = load i32, ptr %13, align 4
  %59 = or i32 %58, %57
  store i32 %59, ptr %13, align 4
  %60 = load i32, ptr %14, align 4
  %61 = add i32 %60, 4
  store i32 %61, ptr %14, align 4
  br label %62

62:                                               ; preds = %51
  %63 = load i32, ptr %12, align 4
  %64 = add i32 %63, 1
  store i32 %64, ptr %12, align 4
  br label %29

65:                                               ; preds = %29
  %66 = load i32, ptr %15, align 4
  %67 = load ptr, ptr %8, align 8
  store i32 %66, ptr %67, align 4
  %68 = load i32, ptr %13, align 4
  store i32 %68, ptr %6, align 4
  br label %69

69:                                               ; preds = %65, %48, %24
  %70 = load i32, ptr %6, align 4
  ret i32 %70
}