; Function Attrs: nounwind uwtable
define internal fastcc i32 @readFixedNumber(ptr nocapture noundef readonly %0, ptr nocapture noundef %1, i32 noundef %2, ptr nocapture noundef writeonly %3, i32 noundef %4) unnamed_addr #0 {
  %6 = load i32, ptr %1, align 4
  %7 = add i32 %6, %4
  %8 = icmp ugt i32 %7, %2
  br i1 %8, label %11, label %.preheader

.preheader:                                       ; preds = %5
  %9 = icmp ult i32 %6, %7
  br i1 %9, label %.lr.ph.preheader, label %._crit_edge

.lr.ph.preheader:                                 ; preds = %.preheader
  %10 = zext i32 %6 to i64
  br label %.lr.ph

11:                                               ; preds = %5
  tail call void (ptr, ...) @cli_errmsg(ptr noundef nonnull @.str.286) #25
  store i8 0, ptr %3, align 1
  br label %22

.lr.ph:                                           ; preds = %.lr.ph.preheader, %17
  %indvars.iv = phi i64 [ %10, %.lr.ph.preheader ], [ %indvars.iv.next, %17 ]
  %.02330 = phi i32 [ 0, %.lr.ph.preheader ], [ %21, %17 ]
  %.02429 = phi i32 [ 0, %.lr.ph.preheader ], [ %20, %17 ]
  %12 = getelementptr inbounds i8, ptr %0, i64 %indvars.iv
  %13 = load i8, ptr %12, align 1
  %14 = zext i8 %13 to i32
  %15 = and i32 %14, 240
  %.not = icmp eq i32 %15, 96
  br i1 %.not, label %17, label %16

16:                                               ; preds = %.lr.ph
  tail call void (ptr, ...) @cli_errmsg(ptr noundef nonnull @.str.280, i32 noundef %14) #25
  store i8 0, ptr %3, align 1
  br label %22

17:                                               ; preds = %.lr.ph
  %18 = and i32 %14, 15
  %19 = shl i32 %18, %.02330
  %20 = or i32 %19, %.02429
  %21 = add i32 %.02330, 4
  %indvars.iv.next = add nuw nsw i64 %indvars.iv, 1
  %lftr.wideiv = trunc i64 %indvars.iv.next to i32
  %exitcond.not = icmp eq i32 %7, %lftr.wideiv
  br i1 %exitcond.not, label %._crit_edge, label %.lr.ph

._crit_edge:                                      ; preds = %17, %.preheader
  %.024.lcssa = phi i32 [ 0, %.preheader ], [ %20, %17 ]
  store i32 %7, ptr %1, align 4
  br label %22

22:                                               ; preds = %._crit_edge, %16, %11
  %.0 = phi i32 [ 0, %11 ], [ 0, %16 ], [ %.024.lcssa, %._crit_edge ]
  ret i32 %.0
}